target datalayout = "e-m:e-p270:32:32-p271:32:32-p272:64:64-i64:64-i128:128-f80:128-n8:16:32:64-S128"
target triple = "x86_64-pc-linux-gnu"

%struct.diff_options = type { ptr, ptr, i32, i32, ptr, i32, ptr, i64, i64, ptr, ptr, ptr, ptr, %struct.diff_flags, i32, i32, i32, i32, i32, i32, i32, i32, i32, i32, i32, i32, i32, i32, i32, i32, i32, i32, i32, i32, i32, i32, ptr, i32, ptr, i32, i32, ptr, i64, i64, i32, i32, i32, i32, ptr, i32, i32, ptr, i32, i32, ptr, ptr, i32, [3 x i8], %struct.pathspec, ptr, ptr, ptr, ptr, ptr, ptr, ptr, ptr, i32, ptr, i32, i32, ptr, ptr, i32 }
%struct.diff_flags = type { i32, i32, i32, i32, i32, i32, i32, i32, i32, i32, i32, i32, i32, i32, i32, i32, i32, i32, i32, i32, i32, i32, i32, i32, i32, i32, i32, i32, i32, i32, i32, i32, i32, i32, i32 }
%struct.pathspec = type { i32, i8, i32, i32, ptr }
%struct.strbuf = type { i64, i64, ptr }
%struct.strvec = type { ptr, i64, i64 }
%struct.string_list = type { ptr, i64, i64, i8, ptr }
%struct.rev_info = type { ptr, %struct.object_array, ptr, %struct.object_array, %struct.rev_cmdline_info, %struct.list_objects_filter_options, %struct.ref_exclusions, ptr, ptr, ptr, %struct.pathspec, i32, i32, i32, i32, i64, i32, i32, %struct.date_mode, i32, i32, i32, i32, ptr, i32, i32, ptr, ptr, i32, ptr, ptr, %struct.ident_split, ptr, i32, ptr, ptr, ptr, i32, i32, i32, ptr, %struct.grep_opt, ptr, i32, i32, i64, i64, i64, i32, i32, ptr, ptr, ptr, %struct.diff_options, %struct.diff_options, ptr, %struct.decoration, %struct.decoration, %struct.decoration, %struct.display_notes_opt, ptr, ptr, ptr, ptr, ptr, i32, ptr, i32, i32, i32, %struct.decoration, ptr, ptr, ptr, ptr, ptr, ptr, ptr, i32, ptr, i32, ptr, %struct.oidset }
%struct.object_array = type { i32, i32, ptr }
%struct.rev_cmdline_info = type { i32, i32, ptr }
%struct.list_objects_filter_options = type { %struct.strbuf, i32, i8, ptr, i64, i64, i32, i64, i64, ptr }
%struct.ref_exclusions = type { %struct.string_list, %struct.strvec, i8 }
%struct.date_mode = type { i32, i32, ptr }
%struct.ident_split = type { ptr, ptr, ptr, ptr, ptr, ptr, ptr, ptr }
%struct.grep_opt = type { ptr, ptr, ptr, ptr, ptr, ptr, i32, i32, i32, i32, i32, i32, i32, i32, i32, i32, i32, i32, i32, i32, i32, i32, i32, i32, i32, i32, i32, i32, i32, i32, i32, i32, [9 x [75 x i8]], i32, i32, i32, i32, i32, i32, i32, ptr, ptr, ptr }
%struct.display_notes_opt = type { i32, %struct.string_list }
%struct.decoration = type { ptr, i32, i32, ptr }
%struct.oidset = type { %struct.kh_oid_set }
%struct.kh_oid_set = type { i32, i32, i32, i32, ptr, ptr, ptr }

@.str.41 = private unnamed_addr constant [1 x i8] zeroinitializer, align 1
@stdout = external global ptr, align 8
@degrade_cc_to_c_warning = internal constant [61 x i8] c"only found copies from modified paths due to too many files.\00", align 16
@rename_limit_warning = internal constant [63 x i8] c"exhaustive rename detection was skipped due to too many files.\00", align 16
@rename_limit_advice = internal constant [75 x i8] c"you may want to set your %s variable to at least %d and retry the command.\00", align 16
@.str.254 = private unnamed_addr constant [17 x i8] c"diff.renameLimit\00", align 1
@git_gettext_enabled = external global i32, align 4

; Function Attrs: inlinehint nounwind uwtable
define internal ptr @_(ptr noundef %0) #2 {
  %2 = alloca ptr, align 8
  %3 = alloca ptr, align 8
  store ptr %0, ptr %3, align 8, !tbaa !9
  %4 = load ptr, ptr %3, align 8, !tbaa !9
  %5 = load i8, ptr %4, align 1, !tbaa !48
  %6 = icmp ne i8 %5, 0
  br i1 %6, label %8, label %7

7:                                                ; preds = %1
  store ptr @.str.41, ptr %2, align 8
  br label %16

8:                                                ; preds = %1
  %9 = load i32, ptr @git_gettext_enabled, align 4, !tbaa !16
  %10 = icmp ne i32 %9, 0
  br i1 %10, label %13, label %11

11:                                               ; preds = %8
  %12 = load ptr, ptr %3, align 8, !tbaa !9
  store ptr %12, ptr %2, align 8
  br label %16

13:                                               ; preds = %8
  %14 = load ptr, ptr %3, align 8, !tbaa !9
  %15 = call ptr @dcgettext(ptr noundef null, ptr noundef %14, i32 noundef 5) #10
  store ptr %15, ptr %2, align 8
  br label %16

16:                                               ; preds = %13, %11, %7
  %17 = load ptr, ptr %2, align 8
  ret ptr %17
}

; Function Attrs: nounwind uwtable
define dso_local void @diff_warn_rename_limit(ptr noundef %0, i32 noundef %1, i32 noundef %2) #0 {
  %4 = alloca ptr, align 8
  %5 = alloca i32, align 4
  %6 = alloca i32, align 4
  store ptr %0, ptr %4, align 8, !tbaa !9
  store i32 %1, ptr %5, align 4, !tbaa !16
  store i32 %2, ptr %6, align 4, !tbaa !16
  %7 = load ptr, ptr @stdout, align 8, !tbaa !71
  %8 = call i32 @fflush(ptr noundef %7)
  %9 = load i32, ptr %6, align 4, !tbaa !16
  %10 = icmp ne i32 %9, 0
  br i1 %10, label %11, label %13

11:                                               ; preds = %3
  %12 = call ptr @_(ptr noundef @degrade_cc_to_c_warning)
  call void (ptr, ...) @warning(ptr noundef %12)
  br label %20

13:                                               ; preds = %3
  %14 = load i32, ptr %5, align 4, !tbaa !16
  %15 = icmp ne i32 %14, 0
  br i1 %15, label %16, label %18

16:                                               ; preds = %13
  %17 = call ptr @_(ptr noundef @rename_limit_warning)
  call void (ptr, ...) @warning(ptr noundef %17)
  br label %19

18:                                               ; preds = %13
  br label %27

19:                                               ; preds = %16
  br label %20

20:                                               ; preds = %19, %11
  %21 = load i32, ptr %5, align 4, !tbaa !16
  %22 = icmp slt i32 0, %21
  br i1 %22, label %23, label %27

23:                                               ; preds = %20
  %24 = call ptr @_(ptr noundef @rename_limit_advice)
  %25 = load ptr, ptr %4, align 8, !tbaa !9
  %26 = load i32, ptr %5, align 4, !tbaa !16
  call void (ptr, ...) @warning(ptr noundef %24, ptr noundef %25, i32 noundef %26)
  br label %27

27:                                               ; preds = %18, %23, %20
  ret void
}

; Function Attrs: nounwind uwtable
define dso_local i32 @diff_result_code(ptr noundef %0) #0 {
  %2 = alloca ptr, align 8
  %3 = alloca ptr, align 8
  %4 = alloca i32, align 4
  store ptr %0, ptr %2, align 8, !tbaa !356
  call void @llvm.lifetime.start.p0(i64 8, ptr %3) #10
  %5 = load ptr, ptr %2, align 8, !tbaa !356
  %6 = getelementptr inbounds nuw %struct.rev_info, ptr %5, i32 0, i32 53
  store ptr %6, ptr %3, align 8, !tbaa !34
  call void @llvm.lifetime.start.p0(i64 4, ptr %4) #10
  store i32 0, ptr %4, align 4, !tbaa !16
  %7 = load ptr, ptr %2, align 8, !tbaa !356
  %8 = getelementptr inbounds nuw %struct.rev_info, ptr %7, i32 0, i32 15
  %9 = load i64, ptr %8, align 8
  %10 = lshr i64 %9, 59
  %11 = and i64 %10, 1
  %12 = trunc i64 %11 to i32
  %13 = icmp ne i32 %12, 0
  br i1 %13, label %14, label %21

14:                                               ; preds = %1
  %15 = load ptr, ptr %2, align 8, !tbaa !356
  %16 = getelementptr inbounds nuw %struct.rev_info, ptr %15, i32 0, i32 81
  %17 = load ptr, ptr %16, align 8, !tbaa !358
  %18 = call i32 @tmp_objdir_destroy(ptr noundef %17)
  %19 = load ptr, ptr %2, align 8, !tbaa !356
  %20 = getelementptr inbounds nuw %struct.rev_info, ptr %19, i32 0, i32 81
  store ptr null, ptr %20, align 8, !tbaa !358
  br label %21

21:                                               ; preds = %14, %1
  %22 = load ptr, ptr %3, align 8, !tbaa !34
  %23 = getelementptr inbounds nuw %struct.diff_options, ptr %22, i32 0, i32 27
  %24 = load i32, ptr %23, align 8, !tbaa !389
  %25 = load ptr, ptr %3, align 8, !tbaa !34
  %26 = getelementptr inbounds nuw %struct.diff_options, ptr %25, i32 0, i32 28
  %27 = load i32, ptr %26, align 4, !tbaa !390
  call void @diff_warn_rename_limit(ptr noundef @.str.254, i32 noundef %24, i32 noundef %27)
  %28 = load ptr, ptr %3, align 8, !tbaa !34
  %29 = getelementptr inbounds nuw %struct.diff_options, ptr %28, i32 0, i32 13
  %30 = getelementptr inbounds nuw %struct.diff_flags, ptr %29, i32 0, i32 13
  %31 = load i32, ptr %30, align 4, !tbaa !208
  %32 = icmp ne i32 %31, 0
  br i1 %32, label %33, label %42

33:                                               ; preds = %21
  %34 = load ptr, ptr %3, align 8, !tbaa !34
  %35 = getelementptr inbounds nuw %struct.diff_options, ptr %34, i32 0, i32 13
  %36 = getelementptr inbounds nuw %struct.diff_flags, ptr %35, i32 0, i32 9
  %37 = load i32, ptr %36, align 4, !tbaa !188
  %38 = icmp ne i32 %37, 0
  br i1 %38, label %39, label %42

39:                                               ; preds = %33
  %40 = load i32, ptr %4, align 4, !tbaa !16
  %41 = or i32 %40, 1
  store i32 %41, ptr %4, align 4, !tbaa !16
  br label %42

42:                                               ; preds = %39, %33, %21
  %43 = load ptr, ptr %3, align 8, !tbaa !34
  %44 = getelementptr inbounds nuw %struct.diff_options, ptr %43, i32 0, i32 24
  %45 = load i32, ptr %44, align 4, !tbaa !202
  %46 = and i32 %45, 1024
  %47 = icmp ne i32 %46, 0
  br i1 %47, label %48, label %57

48:                                               ; preds = %42
  %49 = load ptr, ptr %3, align 8, !tbaa !34
  %50 = getelementptr inbounds nuw %struct.diff_options, ptr %49, i32 0, i32 13
  %51 = getelementptr inbounds nuw %struct.diff_flags, ptr %50, i32 0, i32 15
  %52 = load i32, ptr %51, align 4, !tbaa !391
  %53 = icmp ne i32 %52, 0
  br i1 %53, label %54, label %57

54:                                               ; preds = %48
  %55 = load i32, ptr %4, align 4, !tbaa !16
  %56 = or i32 %55, 2
  store i32 %56, ptr %4, align 4, !tbaa !16
  br label %57

57:                                               ; preds = %54, %48, %42
  %58 = load i32, ptr %4, align 4, !tbaa !16
  call void @llvm.lifetime.end.p0(i64 4, ptr %4) #10
  call void @llvm.lifetime.end.p0(i64 8, ptr %3) #10
  ret i32 %58
}