; Function Attrs: nounwind uwtable
define dso_local range(i32 0, 4) i32 @diff_result_code(ptr noundef captures(none) %0) local_unnamed_addr #0 {
  %2 = getelementptr inbounds nuw i8, ptr %0, i64 288
  %3 = load i64, ptr %2, align 8
  %4 = and i64 %3, 576460752303423488
  %.not = icmp eq i64 %4, 0
  br i1 %.not, label %9, label %5

5:                                                ; preds = %1
  %6 = getelementptr inbounds nuw i8, ptr %0, i64 2960
  %7 = load ptr, ptr %6, align 8, !tbaa !375
  %8 = tail call i32 @tmp_objdir_destroy(ptr noundef %7) #32
  store ptr null, ptr %6, align 8, !tbaa !375
  br label %9

9:                                                ; preds = %5, %1
  %10 = getelementptr inbounds nuw i8, ptr %0, i64 1760
  %11 = load i32, ptr %10, align 8, !tbaa !407
  %12 = getelementptr inbounds nuw i8, ptr %0, i64 1764
  %13 = load i32, ptr %12, align 4, !tbaa !408
  %14 = load ptr, ptr @stdout, align 8, !tbaa !140
  %15 = tail call i32 @fflush(ptr noundef %14)
  %.not.i = icmp eq i32 %13, 0
  br i1 %.not.i, label %18, label %16

16:                                               ; preds = %9
  %17 = load i32, ptr @git_gettext_enabled, align 4, !tbaa !11
  %.not4.i.i = icmp eq i32 %17, 0
  br i1 %.not4.i.i, label %_.exit.i, label %_.exit.sink.split.i

18:                                               ; preds = %9
  %.not4.i = icmp eq i32 %11, 0
  br i1 %.not4.i, label %diff_warn_rename_limit.exit, label %19

19:                                               ; preds = %18
  %20 = load i32, ptr @git_gettext_enabled, align 4, !tbaa !11
  %.not4.i5.i = icmp eq i32 %20, 0
  br i1 %.not4.i5.i, label %_.exit.i, label %_.exit.sink.split.i

_.exit.sink.split.i:                              ; preds = %19, %16
  %rename_limit_warning.sink.i = phi ptr [ @degrade_cc_to_c_warning, %16 ], [ @rename_limit_warning, %19 ]
  %21 = tail call ptr @dcgettext(ptr noundef null, ptr noundef nonnull %rename_limit_warning.sink.i, i32 noundef 5) #32
  br label %_.exit.i

_.exit.i:                                         ; preds = %_.exit.sink.split.i, %19, %16
  %.0.i6.sink.i = phi ptr [ @degrade_cc_to_c_warning, %16 ], [ @rename_limit_warning, %19 ], [ %21, %_.exit.sink.split.i ]
  tail call void (ptr, ...) @warning(ptr noundef %.0.i6.sink.i) #32
  %22 = icmp sgt i32 %11, 0
  br i1 %22, label %23, label %diff_warn_rename_limit.exit

23:                                               ; preds = %_.exit.i
  %24 = load i32, ptr @git_gettext_enabled, align 4, !tbaa !11
  %.not4.i8.i = icmp eq i32 %24, 0
  br i1 %.not4.i8.i, label %_.exit10.i, label %25

25:                                               ; preds = %23
  %26 = tail call ptr @dcgettext(ptr noundef null, ptr noundef nonnull @rename_limit_advice, i32 noundef 5) #32
  br label %_.exit10.i

_.exit10.i:                                       ; preds = %25, %23
  %.0.i9.i = phi ptr [ %26, %25 ], [ @rename_limit_advice, %23 ]
  tail call void (ptr, ...) @warning(ptr noundef %.0.i9.i, ptr noundef nonnull @.str.254, i32 noundef %11) #32
  br label %diff_warn_rename_limit.exit

diff_warn_rename_limit.exit:                      ; preds = %18, %_.exit.i, %_.exit10.i
  %27 = getelementptr inbounds nuw i8, ptr %0, i64 1620
  %28 = load i32, ptr %27, align 4, !tbaa !201
  %.not12 = icmp eq i32 %28, 0
  br i1 %.not12, label %32, label %29

29:                                               ; preds = %diff_warn_rename_limit.exit
  %30 = getelementptr inbounds nuw i8, ptr %0, i64 1604
  %31 = load i32, ptr %30, align 4, !tbaa !182
  %.not13 = icmp ne i32 %31, 0
  %spec.select = zext i1 %.not13 to i32
  br label %32

32:                                               ; preds = %29, %diff_warn_rename_limit.exit
  %.0 = phi i32 [ 0, %diff_warn_rename_limit.exit ], [ %spec.select, %29 ]
  %33 = getelementptr inbounds nuw i8, ptr %0, i64 1748
  %34 = load i32, ptr %33, align 4, !tbaa !195
  %35 = and i32 %34, 1024
  %.not14 = icmp eq i32 %35, 0
  br i1 %.not14, label %40, label %36

36:                                               ; preds = %32
  %37 = getelementptr inbounds nuw i8, ptr %0, i64 1628
  %38 = load i32, ptr %37, align 4, !tbaa !296
  %.not15 = icmp eq i32 %38, 0
  %39 = or disjoint i32 %.0, 2
  %spec.select16 = select i1 %.not15, i32 %.0, i32 %39
  br label %40

40:                                               ; preds = %36, %32
  %.1 = phi i32 [ %.0, %32 ], [ %spec.select16, %36 ]
  ret i32 %.1
}